target datalayout = "e-m:e-p270:32:32-p271:32:32-p272:64:64-i64:64-i128:128-f80:128-n8:16:32:64-S128"
target triple = "x86_64-pc-linux-gnu"

%struct.IDAMemRec = type { double, ptr, ptr, i32, double, double, ptr, i32, ptr, ptr, i32, ptr, ptr, i32, i32, double, double, ptr, i32, i32, i32, ptr, ptr, i32, ptr, ptr, ptr, i32, double, i32, i32, double, ptr, ptr, i32, ptr, ptr, i32, i32, i32, double, ptr, ptr, [6 x ptr], [6 x double], [6 x double], [6 x double], [6 x double], [6 x double], ptr, ptr, ptr, ptr, ptr, ptr, ptr, ptr, ptr, ptr, ptr, ptr, ptr, ptr, ptr, [6 x ptr], ptr, ptr, ptr, ptr, [6 x ptr], ptr, ptr, ptr, ptr, ptr, ptr, ptr, ptr, ptr, ptr, ptr, ptr, ptr, ptr, [6 x ptr], ptr, ptr, ptr, ptr, ptr, double, ptr, ptr, i32, i32, i32, i32, i32, i32, i32, double, double, double, i32, double, i32, i32, i32, i32, double, double, double, double, double, double, double, double, double, double, double, double, double, double, i32, i32, i32, i32, i32, i64, double, i32, i64, i64, i64, i64, i64, i64, i64, i64, i64, i64, i64, i64, i64, i64, i64, i64, i64, i64, i64, i64, i64, i64, i64, i64, ptr, ptr, ptr, i32, i32, i32, i32, i32, i32, i32, i32, i32, i32, i32, i32, i32, ptr, ptr, ptr, ptr, ptr, ptr, i32, i32, i32, i32, i32, i32, double, double, double, ptr, i32, ptr, ptr, double, double, double, ptr, ptr, ptr, double, double, i32, i32, i64, ptr, i32, i32, ptr, i32 }
%struct._generic_N_Vector = type { ptr, ptr }
%struct._generic_N_Vector_Ops = type { ptr, ptr, ptr, ptr, ptr, ptr, ptr, ptr, ptr, ptr, ptr, ptr, ptr, ptr, ptr, ptr, ptr, ptr, ptr, ptr, ptr, ptr, ptr, ptr, ptr }
%struct.IDADlsMemRec = type { i32, i64, i64, i64, i64, i32, ptr, ptr, ptr, ptr, ptr, ptr, i64, i64, i64 }

@.str = private unnamed_addr constant [9 x i8] c"IDASBAND\00", align 1
@.str.1 = private unnamed_addr constant [8 x i8] c"IDABand\00", align 1
@.str.2 = private unnamed_addr constant [27 x i8] c"Integrator memory is NULL.\00", align 1
@.str.3 = private unnamed_addr constant [48 x i8] c"A required vector operation is not implemented.\00", align 1
@.str.4 = private unnamed_addr constant [63 x i8] c"Illegal bandwidth parameter(s). Must have 0 <=  ml, mu <= N-1.\00", align 1
@.str.5 = private unnamed_addr constant [25 x i8] c"A memory request failed.\00", align 1

; Function Attrs: nounwind uwtable
define i32 @IDABand(ptr noundef %0, i64 noundef %1, i64 noundef %2, i64 noundef %3) #0 {
  %5 = alloca i32, align 4
  %6 = alloca ptr, align 8
  %7 = alloca i64, align 8
  %8 = alloca i64, align 8
  %9 = alloca i64, align 8
  %10 = alloca ptr, align 8
  %11 = alloca ptr, align 8
  %12 = alloca i32, align 4
  %13 = alloca i32, align 4
  store ptr %0, ptr %6, align 8, !tbaa !3
  store i64 %1, ptr %7, align 8, !tbaa !7
  store i64 %2, ptr %8, align 8, !tbaa !7
  store i64 %3, ptr %9, align 8, !tbaa !7
  call void @llvm.lifetime.start.p0(i64 8, ptr %10) #5
  call void @llvm.lifetime.start.p0(i64 8, ptr %11) #5
  call void @llvm.lifetime.start.p0(i64 4, ptr %12) #5
  %14 = load ptr, ptr %6, align 8, !tbaa !3
  %15 = icmp eq ptr %14, null
  br i1 %15, label %16, label %17

16:                                               ; preds = %4
  call void (ptr, i32, ptr, ptr, ptr, ...) @IDAProcessError(ptr noundef null, i32 noundef -1, ptr noundef @.str, ptr noundef @.str.1, ptr noundef @.str.2)
  store i32 -1, ptr %5, align 4
  store i32 1, ptr %13, align 4
  br label %150

17:                                               ; preds = %4
  %18 = load ptr, ptr %6, align 8, !tbaa !3
  store ptr %18, ptr %10, align 8, !tbaa !9
  %19 = load ptr, ptr %10, align 8, !tbaa !9
  %20 = getelementptr inbounds nuw %struct.IDAMemRec, ptr %19, i32 0, i32 58
  %21 = load ptr, ptr %20, align 8, !tbaa !11
  %22 = getelementptr inbounds nuw %struct._generic_N_Vector, ptr %21, i32 0, i32 1
  %23 = load ptr, ptr %22, align 8, !tbaa !21
  %24 = getelementptr inbounds nuw %struct._generic_N_Vector_Ops, ptr %23, i32 0, i32 4
  %25 = load ptr, ptr %24, align 8, !tbaa !24
  %26 = icmp eq ptr %25, null
  br i1 %26, label %27, label %29

27:                                               ; preds = %17
  %28 = load ptr, ptr %10, align 8, !tbaa !9
  call void (ptr, i32, ptr, ptr, ptr, ...) @IDAProcessError(ptr noundef %28, i32 noundef -3, ptr noundef @.str, ptr noundef @.str.1, ptr noundef @.str.3)
  store i32 -3, ptr %5, align 4
  store i32 1, ptr %13, align 4
  br label %150

29:                                               ; preds = %17
  %30 = load i64, ptr %9, align 8, !tbaa !7
  %31 = icmp slt i64 %30, 0
  br i1 %31, label %43, label %32

32:                                               ; preds = %29
  %33 = load i64, ptr %8, align 8, !tbaa !7
  %34 = icmp slt i64 %33, 0
  br i1 %34, label %43, label %35

35:                                               ; preds = %32
  %36 = load i64, ptr %9, align 8, !tbaa !7
  %37 = load i64, ptr %7, align 8, !tbaa !7
  %38 = icmp sge i64 %36, %37
  br i1 %38, label %43, label %39

39:                                               ; preds = %35
  %40 = load i64, ptr %8, align 8, !tbaa !7
  %41 = load i64, ptr %7, align 8, !tbaa !7
  %42 = icmp sge i64 %40, %41
  br i1 %42, label %43, label %45

43:                                               ; preds = %39, %35, %32, %29
  %44 = load ptr, ptr %10, align 8, !tbaa !9
  call void (ptr, i32, ptr, ptr, ptr, ...) @IDAProcessError(ptr noundef %44, i32 noundef -3, ptr noundef @.str, ptr noundef @.str.1, ptr noundef @.str.4)
  store i32 -3, ptr %5, align 4
  store i32 1, ptr %13, align 4
  br label %150

45:                                               ; preds = %39
  %46 = load ptr, ptr %10, align 8, !tbaa !9
  %47 = getelementptr inbounds nuw %struct.IDAMemRec, ptr %46, i32 0, i32 175
  %48 = load ptr, ptr %47, align 8, !tbaa !26
  %49 = icmp ne ptr %48, null
  br i1 %49, label %50, label %56

50:                                               ; preds = %45
  %51 = load ptr, ptr %10, align 8, !tbaa !9
  %52 = getelementptr inbounds nuw %struct.IDAMemRec, ptr %51, i32 0, i32 175
  %53 = load ptr, ptr %52, align 8, !tbaa !26
  %54 = load ptr, ptr %6, align 8, !tbaa !3
  %55 = call i32 %53(ptr noundef %54)
  store i32 %55, ptr %12, align 4, !tbaa !27
  br label %56

56:                                               ; preds = %50, %45
  %57 = load ptr, ptr %10, align 8, !tbaa !9
  %58 = getelementptr inbounds nuw %struct.IDAMemRec, ptr %57, i32 0, i32 171
  store ptr @IDABandInit, ptr %58, align 8, !tbaa !28
  %59 = load ptr, ptr %10, align 8, !tbaa !9
  %60 = getelementptr inbounds nuw %struct.IDAMemRec, ptr %59, i32 0, i32 172
  store ptr @IDABandSetup, ptr %60, align 8, !tbaa !29
  %61 = load ptr, ptr %10, align 8, !tbaa !9
  %62 = getelementptr inbounds nuw %struct.IDAMemRec, ptr %61, i32 0, i32 173
  store ptr @IDABandSolve, ptr %62, align 8, !tbaa !30
  %63 = load ptr, ptr %10, align 8, !tbaa !9
  %64 = getelementptr inbounds nuw %struct.IDAMemRec, ptr %63, i32 0, i32 174
  store ptr null, ptr %64, align 8, !tbaa !31
  %65 = load ptr, ptr %10, align 8, !tbaa !9
  %66 = getelementptr inbounds nuw %struct.IDAMemRec, ptr %65, i32 0, i32 175
  store ptr @IDABandFree, ptr %66, align 8, !tbaa !26
  store ptr null, ptr %11, align 8, !tbaa !32
  %67 = call noalias ptr @malloc(i64 noundef 120) #6
  store ptr %67, ptr %11, align 8, !tbaa !32
  %68 = load ptr, ptr %11, align 8, !tbaa !32
  %69 = icmp eq ptr %68, null
  br i1 %69, label %70, label %72

70:                                               ; preds = %56
  %71 = load ptr, ptr %10, align 8, !tbaa !9
  call void (ptr, i32, ptr, ptr, ptr, ...) @IDAProcessError(ptr noundef %71, i32 noundef -4, ptr noundef @.str, ptr noundef @.str.1, ptr noundef @.str.5)
  store i32 -4, ptr %5, align 4
  store i32 1, ptr %13, align 4
  br label %150

72:                                               ; preds = %56
  %73 = load ptr, ptr %11, align 8, !tbaa !32
  %74 = getelementptr inbounds nuw %struct.IDADlsMemRec, ptr %73, i32 0, i32 0
  store i32 2, ptr %74, align 8, !tbaa !34
  %75 = load ptr, ptr %11, align 8, !tbaa !32
  %76 = getelementptr inbounds nuw %struct.IDADlsMemRec, ptr %75, i32 0, i32 5
  store i32 1, ptr %76, align 8, !tbaa !38
  %77 = load ptr, ptr %11, align 8, !tbaa !32
  %78 = getelementptr inbounds nuw %struct.IDADlsMemRec, ptr %77, i32 0, i32 7
  store ptr null, ptr %78, align 8, !tbaa !39
  %79 = load ptr, ptr %11, align 8, !tbaa !32
  %80 = getelementptr inbounds nuw %struct.IDADlsMemRec, ptr %79, i32 0, i32 8
  store ptr null, ptr %80, align 8, !tbaa !40
  %81 = load ptr, ptr %11, align 8, !tbaa !32
  %82 = getelementptr inbounds nuw %struct.IDADlsMemRec, ptr %81, i32 0, i32 14
  store i64 0, ptr %82, align 8, !tbaa !41
  %83 = load ptr, ptr %10, align 8, !tbaa !9
  %84 = getelementptr inbounds nuw %struct.IDAMemRec, ptr %83, i32 0, i32 179
  store i32 1, ptr %84, align 8, !tbaa !42
  %85 = load i64, ptr %7, align 8, !tbaa !7
  %86 = load ptr, ptr %11, align 8, !tbaa !32
  %87 = getelementptr inbounds nuw %struct.IDADlsMemRec, ptr %86, i32 0, i32 1
  store i64 %85, ptr %87, align 8, !tbaa !43
  %88 = load i64, ptr %9, align 8, !tbaa !7
  %89 = load ptr, ptr %11, align 8, !tbaa !32
  %90 = getelementptr inbounds nuw %struct.IDADlsMemRec, ptr %89, i32 0, i32 2
  store i64 %88, ptr %90, align 8, !tbaa !44
  %91 = load i64, ptr %8, align 8, !tbaa !7
  %92 = load ptr, ptr %11, align 8, !tbaa !32
  %93 = getelementptr inbounds nuw %struct.IDADlsMemRec, ptr %92, i32 0, i32 3
  store i64 %91, ptr %93, align 8, !tbaa !45
  %94 = load i64, ptr %7, align 8, !tbaa !7
  %95 = sub nsw i64 %94, 1
  %96 = load i64, ptr %8, align 8, !tbaa !7
  %97 = load i64, ptr %9, align 8, !tbaa !7
  %98 = add nsw i64 %96, %97
  %99 = icmp slt i64 %95, %98
  br i1 %99, label %100, label %103

100:                                              ; preds = %72
  %101 = load i64, ptr %7, align 8, !tbaa !7
  %102 = sub nsw i64 %101, 1
  br label %107

103:                                              ; preds = %72
  %104 = load i64, ptr %8, align 8, !tbaa !7
  %105 = load i64, ptr %9, align 8, !tbaa !7
  %106 = add nsw i64 %104, %105
  br label %107

107:                                              ; preds = %103, %100
  %108 = phi i64 [ %102, %100 ], [ %106, %103 ]
  %109 = load ptr, ptr %11, align 8, !tbaa !32
  %110 = getelementptr inbounds nuw %struct.IDADlsMemRec, ptr %109, i32 0, i32 4
  store i64 %108, ptr %110, align 8, !tbaa !46
  %111 = load ptr, ptr %11, align 8, !tbaa !32
  %112 = getelementptr inbounds nuw %struct.IDADlsMemRec, ptr %111, i32 0, i32 9
  store ptr null, ptr %112, align 8, !tbaa !47
  %113 = load i64, ptr %7, align 8, !tbaa !7
  %114 = load i64, ptr %8, align 8, !tbaa !7
  %115 = load i64, ptr %9, align 8, !tbaa !7
  %116 = load ptr, ptr %11, align 8, !tbaa !32
  %117 = getelementptr inbounds nuw %struct.IDADlsMemRec, ptr %116, i32 0, i32 4
  %118 = load i64, ptr %117, align 8, !tbaa !46
  %119 = call ptr @NewBandMat(i64 noundef %113, i64 noundef %114, i64 noundef %115, i64 noundef %118)
  %120 = load ptr, ptr %11, align 8, !tbaa !32
  %121 = getelementptr inbounds nuw %struct.IDADlsMemRec, ptr %120, i32 0, i32 9
  store ptr %119, ptr %121, align 8, !tbaa !47
  %122 = load ptr, ptr %11, align 8, !tbaa !32
  %123 = getelementptr inbounds nuw %struct.IDADlsMemRec, ptr %122, i32 0, i32 9
  %124 = load ptr, ptr %123, align 8, !tbaa !47
  %125 = icmp eq ptr %124, null
  br i1 %125, label %126, label %129

126:                                              ; preds = %107
  %127 = load ptr, ptr %10, align 8, !tbaa !9
  call void (ptr, i32, ptr, ptr, ptr, ...) @IDAProcessError(ptr noundef %127, i32 noundef -4, ptr noundef @.str, ptr noundef @.str.1, ptr noundef @.str.5)
  %128 = load ptr, ptr %11, align 8, !tbaa !32
  call void @free(ptr noundef %128) #5
  store ptr null, ptr %11, align 8, !tbaa !32
  store i32 -4, ptr %5, align 4
  store i32 1, ptr %13, align 4
  br label %150

129:                                              ; preds = %107
  %130 = load ptr, ptr %11, align 8, !tbaa !32
  %131 = getelementptr inbounds nuw %struct.IDADlsMemRec, ptr %130, i32 0, i32 11
  store ptr null, ptr %131, align 8, !tbaa !48
  %132 = load i64, ptr %7, align 8, !tbaa !7
  %133 = call ptr @NewLintArray(i64 noundef %132)
  %134 = load ptr, ptr %11, align 8, !tbaa !32
  %135 = getelementptr inbounds nuw %struct.IDADlsMemRec, ptr %134, i32 0, i32 11
  store ptr %133, ptr %135, align 8, !tbaa !48
  %136 = load ptr, ptr %11, align 8, !tbaa !32
  %137 = getelementptr inbounds nuw %struct.IDADlsMemRec, ptr %136, i32 0, i32 11
  %138 = load ptr, ptr %137, align 8, !tbaa !48
  %139 = icmp eq ptr %138, null
  br i1 %139, label %140, label %146

140:                                              ; preds = %129
  %141 = load ptr, ptr %10, align 8, !tbaa !9
  call void (ptr, i32, ptr, ptr, ptr, ...) @IDAProcessError(ptr noundef %141, i32 noundef -4, ptr noundef @.str, ptr noundef @.str.1, ptr noundef @.str.5)
  %142 = load ptr, ptr %11, align 8, !tbaa !32
  %143 = getelementptr inbounds nuw %struct.IDADlsMemRec, ptr %142, i32 0, i32 9
  %144 = load ptr, ptr %143, align 8, !tbaa !47
  call void @DestroyMat(ptr noundef %144)
  %145 = load ptr, ptr %11, align 8, !tbaa !32
  call void @free(ptr noundef %145) #5
  store ptr null, ptr %11, align 8, !tbaa !32
  store i32 -4, ptr %5, align 4
  store i32 1, ptr %13, align 4
  br label %150

146:                                              ; preds = %129
  %147 = load ptr, ptr %11, align 8, !tbaa !32
  %148 = load ptr, ptr %10, align 8, !tbaa !9
  %149 = getelementptr inbounds nuw %struct.IDAMemRec, ptr %148, i32 0, i32 176
  store ptr %147, ptr %149, align 8, !tbaa !49
  store i32 0, ptr %5, align 4
  store i32 1, ptr %13, align 4
  br label %150

150:                                              ; preds = %146, %140, %126, %70, %43, %27, %16
  call void @llvm.lifetime.end.p0(i64 4, ptr %12) #5
  call void @llvm.lifetime.end.p0(i64 8, ptr %11) #5
  call void @llvm.lifetime.end.p0(i64 8, ptr %10) #5
  %151 = load i32, ptr %5, align 4
  ret i32 %151
}