; Function Attrs: nounwind uwtable
define range(i32 -4, 1) i32 @IDABand(ptr noundef %0, i64 noundef %1, i64 noundef %2, i64 noundef %3) local_unnamed_addr #0 {
  %5 = icmp eq ptr %0, null
  br i1 %5, label %6, label %7

6:                                                ; preds = %4
  tail call void (ptr, i32, ptr, ptr, ptr, ...) @IDAProcessError(ptr noundef null, i32 noundef -1, ptr noundef nonnull @.str, ptr noundef nonnull @.str.1, ptr noundef nonnull @.str.2) #7
  br label %55

7:                                                ; preds = %4
  %8 = getelementptr inbounds nuw i8, ptr %0, i64 672
  %9 = load ptr, ptr %8, align 8, !tbaa !3
  %10 = getelementptr inbounds nuw i8, ptr %9, i64 8
  %11 = load ptr, ptr %10, align 8, !tbaa !17
  %12 = getelementptr inbounds nuw i8, ptr %11, i64 32
  %13 = load ptr, ptr %12, align 8, !tbaa !20
  %14 = icmp eq ptr %13, null
  br i1 %14, label %15, label %16

15:                                               ; preds = %7
  tail call void (ptr, i32, ptr, ptr, ptr, ...) @IDAProcessError(ptr noundef nonnull %0, i32 noundef -3, ptr noundef nonnull @.str, ptr noundef nonnull @.str.1, ptr noundef nonnull @.str.3) #7
  br label %55

16:                                               ; preds = %7
  %17 = or i64 %3, %2
  %or.cond.not = icmp sgt i64 %17, -1
  %.not = icmp slt i64 %3, %1
  %or.cond = and i1 %.not, %or.cond.not
  %.not67 = icmp slt i64 %2, %1
  %or.cond70 = and i1 %.not67, %or.cond
  br i1 %or.cond70, label %19, label %18

18:                                               ; preds = %16
  tail call void (ptr, i32, ptr, ptr, ptr, ...) @IDAProcessError(ptr noundef nonnull %0, i32 noundef -3, ptr noundef nonnull @.str, ptr noundef nonnull @.str.1, ptr noundef nonnull @.str.4) #7
  br label %55

19:                                               ; preds = %16
  %20 = getelementptr inbounds nuw i8, ptr %0, i64 1624
  %21 = load ptr, ptr %20, align 8, !tbaa !22
  %.not68 = icmp eq ptr %21, null
  br i1 %.not68, label %24, label %22

22:                                               ; preds = %19
  %23 = tail call i32 %21(ptr noundef nonnull %0) #7
  br label %24

24:                                               ; preds = %22, %19
  %25 = getelementptr inbounds nuw i8, ptr %0, i64 1592
  store ptr @IDABandInit, ptr %25, align 8, !tbaa !23
  %26 = getelementptr inbounds nuw i8, ptr %0, i64 1600
  store ptr @IDABandSetup, ptr %26, align 8, !tbaa !24
  %27 = getelementptr inbounds nuw i8, ptr %0, i64 1608
  store ptr @IDABandSolve, ptr %27, align 8, !tbaa !25
  %28 = getelementptr inbounds nuw i8, ptr %0, i64 1616
  store ptr null, ptr %28, align 8, !tbaa !26
  store ptr @IDABandFree, ptr %20, align 8, !tbaa !22
  %29 = tail call noalias dereferenceable_or_null(120) ptr @malloc(i64 noundef 120) #8
  %30 = icmp eq ptr %29, null
  br i1 %30, label %31, label %32

31:                                               ; preds = %24
  tail call void (ptr, i32, ptr, ptr, ptr, ...) @IDAProcessError(ptr noundef nonnull %0, i32 noundef -4, ptr noundef nonnull @.str, ptr noundef nonnull @.str.1, ptr noundef nonnull @.str.5) #7
  br label %55

32:                                               ; preds = %24
  store i32 2, ptr %29, align 8, !tbaa !27
  %33 = getelementptr inbounds nuw i8, ptr %29, i64 40
  store i32 1, ptr %33, align 8, !tbaa !31
  %34 = getelementptr inbounds nuw i8, ptr %29, i64 56
  %35 = getelementptr inbounds nuw i8, ptr %29, i64 112
  store i64 0, ptr %35, align 8, !tbaa !32
  %36 = getelementptr inbounds nuw i8, ptr %0, i64 1648
  tail call void @llvm.memset.p0.i64(ptr noundef nonnull align 8 dereferenceable(16) %34, i8 0, i64 16, i1 false)
  store i32 1, ptr %36, align 8, !tbaa !33
  %37 = getelementptr inbounds nuw i8, ptr %29, i64 8
  store i64 %1, ptr %37, align 8, !tbaa !34
  %38 = getelementptr inbounds nuw i8, ptr %29, i64 16
  store i64 %3, ptr %38, align 8, !tbaa !35
  %39 = getelementptr inbounds nuw i8, ptr %29, i64 24
  store i64 %2, ptr %39, align 8, !tbaa !36
  %40 = add nuw nsw i64 %3, %2
  %.not69 = icmp sgt i64 %1, %40
  %41 = add nsw i64 %1, -1
  %42 = select i1 %.not69, i64 %40, i64 %41
  %43 = getelementptr inbounds nuw i8, ptr %29, i64 32
  store i64 %42, ptr %43, align 8, !tbaa !37
  %44 = getelementptr inbounds nuw i8, ptr %29, i64 72
  %45 = tail call ptr @NewBandMat(i64 noundef %1, i64 noundef %2, i64 noundef %3, i64 noundef %42) #7
  store ptr %45, ptr %44, align 8, !tbaa !38
  %46 = icmp eq ptr %45, null
  br i1 %46, label %47, label %48

47:                                               ; preds = %32
  tail call void (ptr, i32, ptr, ptr, ptr, ...) @IDAProcessError(ptr noundef nonnull %0, i32 noundef -4, ptr noundef nonnull @.str, ptr noundef nonnull @.str.1, ptr noundef nonnull @.str.5) #7
  tail call void @free(ptr noundef nonnull %29) #7
  br label %55

48:                                               ; preds = %32
  %49 = getelementptr inbounds nuw i8, ptr %29, i64 88
  %50 = tail call ptr @NewLintArray(i64 noundef %1) #7
  store ptr %50, ptr %49, align 8, !tbaa !39
  %51 = icmp eq ptr %50, null
  br i1 %51, label %52, label %53

52:                                               ; preds = %48
  tail call void (ptr, i32, ptr, ptr, ptr, ...) @IDAProcessError(ptr noundef nonnull %0, i32 noundef -4, ptr noundef nonnull @.str, ptr noundef nonnull @.str.1, ptr noundef nonnull @.str.5) #7
  tail call void @DestroyMat(ptr noundef nonnull %45) #7
  tail call void @free(ptr noundef nonnull %29) #7
  br label %55

53:                                               ; preds = %48
  %54 = getelementptr inbounds nuw i8, ptr %0, i64 1632
  store ptr %29, ptr %54, align 8, !tbaa !40
  br label %55

55:                                               ; preds = %53, %52, %47, %31, %18, %15, %6
  %.0 = phi i32 [ -1, %6 ], [ -3, %15 ], [ -3, %18 ], [ -4, %31 ], [ -4, %47 ], [ -4, %52 ], [ 0, %53 ]
  ret i32 %.0
}